; Function Attrs: nounwind uwtable
define hidden zeroext i8 @isThread(ptr noundef %0) local_unnamed_addr #0 {
  %2 = tail call ptr @getEnv()
  %3 = load ptr, ptr @gdata, align 8
  %4 = getelementptr inbounds i8, ptr %3, i64 528
  %5 = load i32, ptr %4, align 8
  %6 = and i32 %5, 2
  %.not = icmp eq i32 %6, 0
  br i1 %.not, label %8, label %7

7:                                                ; preds = %1
  tail call void @log_message_begin(ptr noundef nonnull @.str.8, ptr noundef nonnull @.str.4, i32 noundef 1544) #14
  tail call void (ptr, ...) @log_message_end(ptr noundef nonnull @.str.9, ptr noundef nonnull @.str.62) #14
  %.pre = load ptr, ptr @gdata, align 8
  br label %8

8:                                                ; preds = %1, %7
  %9 = phi ptr [ %3, %1 ], [ %.pre, %7 ]
  %10 = load ptr, ptr %2, align 8
  %11 = getelementptr inbounds i8, ptr %10, i64 256
  %12 = load ptr, ptr %11, align 8
  %13 = getelementptr inbounds i8, ptr %9, i64 48
  %14 = load ptr, ptr %13, align 8
  %15 = tail call zeroext i8 %12(ptr noundef nonnull %2, ptr noundef %0, ptr noundef %14) #14
  ret i8 %15
}